; Function Attrs: mustprogress nofree norecurse nosync nounwind willreturn memory(read, argmem: write, inaccessiblemem: none) uwtable
define internal noundef i32 @H5S__none_iter_get_seq_list(ptr readnone captures(none) %0, i64 %1, i64 %2, ptr noundef writeonly captures(none) %3, ptr noundef writeonly captures(none) %4, ptr readnone captures(none) %5, ptr readnone captures(none) %6) #0 {
  %8 = load i8, ptr @H5S_init_g, align 1, !tbaa !3, !range !7, !noundef !8
  %9 = trunc nuw i8 %8 to i1
  %10 = load i8, ptr @H5_libterm_g, align 1, !range !7
  %11 = trunc nuw i8 %10 to i1
  %12 = xor i1 %11, true
  %13 = select i1 %9, i1 true, i1 %12
  br i1 %13, label %14, label %15, !prof !9

14:                                               ; preds = %7
  store i64 0, ptr %3, align 8, !tbaa !28
  store i64 0, ptr %4, align 8, !tbaa !28
  br label %15

15:                                               ; preds = %14, %7
  ret i32 0
}